; Function Attrs: mustprogress nounwind uwtable
define internal fastcc void @_ZN12_GLOBAL__N_112StmtProfiler29VisitUnaryExprOrTypeTraitExprEPKN5clang24UnaryExprOrTypeTraitExprE(ptr noundef nonnull align 8 dereferenceable(18) %0, ptr noundef %1) unnamed_addr #0 align 2 {
  tail call fastcc void @_ZN12_GLOBAL__N_112StmtProfiler9VisitStmtEPKN5clang4StmtE(ptr noundef nonnull align 8 dereferenceable(18) %0, ptr noundef %1)
  %3 = getelementptr inbounds nuw i8, ptr %0, i64 8
  %4 = load ptr, ptr %3, align 8
  %5 = load i24, ptr %1, align 8
  %6 = lshr i24 %5, 18
  %7 = and i24 %6, 7
  %8 = zext nneg i24 %7 to i32
  %9 = tail call noundef i64 @_ZNK4llvm15SmallVectorBaseIjE4sizeEv(ptr noundef nonnull align 8 dereferenceable(144) %4) #11
  %10 = add i64 %9, 1
  %11 = tail call noundef i64 @_ZNK4llvm15SmallVectorBaseIjE8capacityEv(ptr noundef nonnull align 8 dereferenceable(144) %4) #11
  %.not.i.i.i.i = icmp ugt i64 %10, %11
  br i1 %.not.i.i.i.i, label %12, label %_ZN4llvm16FoldingSetNodeID10AddIntegerEi.exit

12:                                               ; preds = %2
  %13 = getelementptr inbounds nuw i8, ptr %4, i64 16
  tail call void @_ZN4llvm15SmallVectorBaseIjE8grow_podEPvmm(ptr noundef nonnull align 8 dereferenceable(144) %4, ptr noundef nonnull %13, i64 noundef %10, i64 noundef 4) #11
  br label %_ZN4llvm16FoldingSetNodeID10AddIntegerEi.exit

_ZN4llvm16FoldingSetNodeID10AddIntegerEi.exit:    ; preds = %2, %12
  %14 = load ptr, ptr %4, align 8
  %15 = tail call noundef i64 @_ZNK4llvm15SmallVectorBaseIjE4sizeEv(ptr noundef nonnull align 8 dereferenceable(144) %4) #11
  %16 = getelementptr inbounds i32, ptr %14, i64 %15
  store i32 %8, ptr %16, align 1
  %17 = tail call noundef i64 @_ZNK4llvm15SmallVectorBaseIjE4sizeEv(ptr noundef nonnull align 8 dereferenceable(144) %4) #11
  %18 = add i64 %17, 1
  tail call void @_ZN4llvm15SmallVectorBaseIjE8set_sizeEm(ptr noundef nonnull align 8 dereferenceable(144) %4, i64 noundef %18) #11
  %19 = load i24, ptr %1, align 8
  %20 = and i24 %19, 2097152
  %.not = icmp eq i24 %20, 0
  br i1 %.not, label %27, label %21

21:                                               ; preds = %_ZN4llvm16FoldingSetNodeID10AddIntegerEi.exit
  %22 = getelementptr inbounds nuw i8, ptr %1, i64 16
  %23 = load ptr, ptr %22, align 8
  %.sroa.0.0.copyload.i.i = load i64, ptr %23, align 8
  %24 = load ptr, ptr %0, align 8
  %25 = getelementptr inbounds nuw i8, ptr %24, i64 32
  %26 = load ptr, ptr %25, align 8
  tail call void %26(ptr noundef nonnull align 8 dereferenceable(18) %0, i64 %.sroa.0.0.copyload.i.i) #11
  br label %27

27:                                               ; preds = %21, %_ZN4llvm16FoldingSetNodeID10AddIntegerEi.exit
  ret void
}